target datalayout = "e-m:e-p270:32:32-p271:32:32-p272:64:64-i64:64-i128:128-f80:128-n8:16:32:64-S128"
target triple = "x86_64-pc-linux-gnu"

%struct.lean_object = type { i32, i32 }

; Function Attrs: alwaysinline nounwind uwtable
define internal void @lean_dec_ref(ptr noundef %0) #1 {
  %2 = alloca ptr, align 8
  store ptr %0, ptr %2, align 8, !tbaa !4
  %3 = load ptr, ptr %2, align 8, !tbaa !4
  %4 = getelementptr inbounds nuw %struct.lean_object, ptr %3, i32 0, i32 0
  %5 = load i32, ptr %4, align 4, !tbaa !13
  %6 = icmp sgt i32 %5, 1
  %7 = zext i1 %6 to i32
  %8 = sext i32 %7 to i64
  %9 = call i64 @llvm.expect.i64(i64 %8, i64 1)
  %10 = icmp ne i64 %9, 0
  br i1 %10, label %11, label %16

11:                                               ; preds = %1
  %12 = load ptr, ptr %2, align 8, !tbaa !4
  %13 = getelementptr inbounds nuw %struct.lean_object, ptr %12, i32 0, i32 0
  %14 = load i32, ptr %13, align 4, !tbaa !13
  %15 = add i32 %14, -1
  store i32 %15, ptr %13, align 4, !tbaa !13
  br label %24

16:                                               ; preds = %1
  %17 = load ptr, ptr %2, align 8, !tbaa !4
  %18 = getelementptr inbounds nuw %struct.lean_object, ptr %17, i32 0, i32 0
  %19 = load i32, ptr %18, align 4, !tbaa !13
  %20 = icmp ne i32 %19, 0
  br i1 %20, label %21, label %23

21:                                               ; preds = %16
  %22 = load ptr, ptr %2, align 8, !tbaa !4
  call void @lean_dec_ref_cold(ptr noundef %22)
  br label %23

23:                                               ; preds = %21, %16
  br label %24

24:                                               ; preds = %23, %11
  ret void
}

; Function Attrs: alwaysinline nounwind uwtable
define internal zeroext i1 @lean_is_scalar(ptr noundef %0) #1 {
  %2 = alloca ptr, align 8
  store ptr %0, ptr %2, align 8, !tbaa !4
  %3 = load ptr, ptr %2, align 8, !tbaa !4
  %4 = ptrtoint ptr %3 to i64
  %5 = and i64 %4, 1
  %6 = icmp eq i64 %5, 1
  ret i1 %6
}

; Function Attrs: alwaysinline nounwind uwtable
define internal void @lean_dec(ptr noundef %0) #1 {
  %2 = alloca ptr, align 8
  store ptr %0, ptr %2, align 8, !tbaa !4
  %3 = load ptr, ptr %2, align 8, !tbaa !4
  %4 = call zeroext i1 @lean_is_scalar(ptr noundef %3)
  br i1 %4, label %7, label %5

5:                                                ; preds = %1
  %6 = load ptr, ptr %2, align 8, !tbaa !4
  call void @lean_dec_ref(ptr noundef %6)
  br label %7

7:                                                ; preds = %5, %1
  ret void
}

; Function Attrs: inlinehint nounwind uwtable
define internal i64 @lean_unbox(ptr noundef %0) #0 {
  %2 = alloca ptr, align 8
  store ptr %0, ptr %2, align 8, !tbaa !4
  %3 = load ptr, ptr %2, align 8, !tbaa !4
  %4 = ptrtoint ptr %3 to i64
  %5 = lshr i64 %4, 1
  ret i64 %5
}

; Function Attrs: nounwind uwtable
define ptr @l_Lean_PrettyPrinter_Parenthesizer_maybeParenthesize___lambda__9___boxed(ptr noundef %0) #2 {
  %2 = alloca ptr, align 8
  %3 = alloca ptr, align 8
  %4 = alloca ptr, align 8
  %5 = alloca ptr, align 8
  %6 = alloca ptr, align 8
  %7 = alloca ptr, align 8
  %8 = alloca ptr, align 8
  %9 = alloca ptr, align 8
  %10 = alloca ptr, align 8
  %11 = alloca ptr, align 8
  %12 = alloca ptr, align 8
  %13 = alloca ptr, align 8
  %14 = alloca ptr, align 8
  %15 = alloca ptr, align 8
  %16 = alloca ptr, align 8
  %17 = alloca ptr, align 8
  %18 = alloca ptr, align 8
  %19 = alloca ptr, align 8
  %20 = alloca ptr, align 8
  %21 = alloca ptr, align 8
  %22 = alloca ptr, align 8
  %23 = alloca ptr, align 8
  %24 = alloca ptr, align 8
  %25 = alloca ptr, align 8
  %26 = alloca i8, align 1
  %27 = alloca i8, align 1
  %28 = alloca ptr, align 8
  store ptr %0, ptr %2, align 8, !tbaa !17
  call void @llvm.lifetime.start.p0(i64 8, ptr %3) #8
  %29 = load ptr, ptr %2, align 8, !tbaa !17
  %30 = getelementptr inbounds ptr, ptr %29, i64 0
  %31 = load ptr, ptr %30, align 8, !tbaa !4
  store ptr %31, ptr %3, align 8, !tbaa !4
  call void @llvm.lifetime.start.p0(i64 8, ptr %4) #8
  %32 = load ptr, ptr %2, align 8, !tbaa !17
  %33 = getelementptr inbounds ptr, ptr %32, i64 1
  %34 = load ptr, ptr %33, align 8, !tbaa !4
  store ptr %34, ptr %4, align 8, !tbaa !4
  call void @llvm.lifetime.start.p0(i64 8, ptr %5) #8
  %35 = load ptr, ptr %2, align 8, !tbaa !17
  %36 = getelementptr inbounds ptr, ptr %35, i64 2
  %37 = load ptr, ptr %36, align 8, !tbaa !4
  store ptr %37, ptr %5, align 8, !tbaa !4
  call void @llvm.lifetime.start.p0(i64 8, ptr %6) #8
  %38 = load ptr, ptr %2, align 8, !tbaa !17
  %39 = getelementptr inbounds ptr, ptr %38, i64 3
  %40 = load ptr, ptr %39, align 8, !tbaa !4
  store ptr %40, ptr %6, align 8, !tbaa !4
  call void @llvm.lifetime.start.p0(i64 8, ptr %7) #8
  %41 = load ptr, ptr %2, align 8, !tbaa !17
  %42 = getelementptr inbounds ptr, ptr %41, i64 4
  %43 = load ptr, ptr %42, align 8, !tbaa !4
  store ptr %43, ptr %7, align 8, !tbaa !4
  call void @llvm.lifetime.start.p0(i64 8, ptr %8) #8
  %44 = load ptr, ptr %2, align 8, !tbaa !17
  %45 = getelementptr inbounds ptr, ptr %44, i64 5
  %46 = load ptr, ptr %45, align 8, !tbaa !4
  store ptr %46, ptr %8, align 8, !tbaa !4
  call void @llvm.lifetime.start.p0(i64 8, ptr %9) #8
  %47 = load ptr, ptr %2, align 8, !tbaa !17
  %48 = getelementptr inbounds ptr, ptr %47, i64 6
  %49 = load ptr, ptr %48, align 8, !tbaa !4
  store ptr %49, ptr %9, align 8, !tbaa !4
  call void @llvm.lifetime.start.p0(i64 8, ptr %10) #8
  %50 = load ptr, ptr %2, align 8, !tbaa !17
  %51 = getelementptr inbounds ptr, ptr %50, i64 7
  %52 = load ptr, ptr %51, align 8, !tbaa !4
  store ptr %52, ptr %10, align 8, !tbaa !4
  call void @llvm.lifetime.start.p0(i64 8, ptr %11) #8
  %53 = load ptr, ptr %2, align 8, !tbaa !17
  %54 = getelementptr inbounds ptr, ptr %53, i64 8
  %55 = load ptr, ptr %54, align 8, !tbaa !4
  store ptr %55, ptr %11, align 8, !tbaa !4
  call void @llvm.lifetime.start.p0(i64 8, ptr %12) #8
  %56 = load ptr, ptr %2, align 8, !tbaa !17
  %57 = getelementptr inbounds ptr, ptr %56, i64 9
  %58 = load ptr, ptr %57, align 8, !tbaa !4
  store ptr %58, ptr %12, align 8, !tbaa !4
  call void @llvm.lifetime.start.p0(i64 8, ptr %13) #8
  %59 = load ptr, ptr %2, align 8, !tbaa !17
  %60 = getelementptr inbounds ptr, ptr %59, i64 10
  %61 = load ptr, ptr %60, align 8, !tbaa !4
  store ptr %61, ptr %13, align 8, !tbaa !4
  call void @llvm.lifetime.start.p0(i64 8, ptr %14) #8
  %62 = load ptr, ptr %2, align 8, !tbaa !17
  %63 = getelementptr inbounds ptr, ptr %62, i64 11
  %64 = load ptr, ptr %63, align 8, !tbaa !4
  store ptr %64, ptr %14, align 8, !tbaa !4
  call void @llvm.lifetime.start.p0(i64 8, ptr %15) #8
  %65 = load ptr, ptr %2, align 8, !tbaa !17
  %66 = getelementptr inbounds ptr, ptr %65, i64 12
  %67 = load ptr, ptr %66, align 8, !tbaa !4
  store ptr %67, ptr %15, align 8, !tbaa !4
  call void @llvm.lifetime.start.p0(i64 8, ptr %16) #8
  %68 = load ptr, ptr %2, align 8, !tbaa !17
  %69 = getelementptr inbounds ptr, ptr %68, i64 13
  %70 = load ptr, ptr %69, align 8, !tbaa !4
  store ptr %70, ptr %16, align 8, !tbaa !4
  call void @llvm.lifetime.start.p0(i64 8, ptr %17) #8
  %71 = load ptr, ptr %2, align 8, !tbaa !17
  %72 = getelementptr inbounds ptr, ptr %71, i64 14
  %73 = load ptr, ptr %72, align 8, !tbaa !4
  store ptr %73, ptr %17, align 8, !tbaa !4
  call void @llvm.lifetime.start.p0(i64 8, ptr %18) #8
  %74 = load ptr, ptr %2, align 8, !tbaa !17
  %75 = getelementptr inbounds ptr, ptr %74, i64 15
  %76 = load ptr, ptr %75, align 8, !tbaa !4
  store ptr %76, ptr %18, align 8, !tbaa !4
  call void @llvm.lifetime.start.p0(i64 8, ptr %19) #8
  %77 = load ptr, ptr %2, align 8, !tbaa !17
  %78 = getelementptr inbounds ptr, ptr %77, i64 16
  %79 = load ptr, ptr %78, align 8, !tbaa !4
  store ptr %79, ptr %19, align 8, !tbaa !4
  call void @llvm.lifetime.start.p0(i64 8, ptr %20) #8
  %80 = load ptr, ptr %2, align 8, !tbaa !17
  %81 = getelementptr inbounds ptr, ptr %80, i64 17
  %82 = load ptr, ptr %81, align 8, !tbaa !4
  store ptr %82, ptr %20, align 8, !tbaa !4
  call void @llvm.lifetime.start.p0(i64 8, ptr %21) #8
  %83 = load ptr, ptr %2, align 8, !tbaa !17
  %84 = getelementptr inbounds ptr, ptr %83, i64 18
  %85 = load ptr, ptr %84, align 8, !tbaa !4
  store ptr %85, ptr %21, align 8, !tbaa !4
  call void @llvm.lifetime.start.p0(i64 8, ptr %22) #8
  %86 = load ptr, ptr %2, align 8, !tbaa !17
  %87 = getelementptr inbounds ptr, ptr %86, i64 19
  %88 = load ptr, ptr %87, align 8, !tbaa !4
  store ptr %88, ptr %22, align 8, !tbaa !4
  call void @llvm.lifetime.start.p0(i64 8, ptr %23) #8
  %89 = load ptr, ptr %2, align 8, !tbaa !17
  %90 = getelementptr inbounds ptr, ptr %89, i64 20
  %91 = load ptr, ptr %90, align 8, !tbaa !4
  store ptr %91, ptr %23, align 8, !tbaa !4
  call void @llvm.lifetime.start.p0(i64 8, ptr %24) #8
  %92 = load ptr, ptr %2, align 8, !tbaa !17
  %93 = getelementptr inbounds ptr, ptr %92, i64 21
  %94 = load ptr, ptr %93, align 8, !tbaa !4
  store ptr %94, ptr %24, align 8, !tbaa !4
  call void @llvm.lifetime.start.p0(i64 8, ptr %25) #8
  %95 = load ptr, ptr %2, align 8, !tbaa !17
  %96 = getelementptr inbounds ptr, ptr %95, i64 22
  %97 = load ptr, ptr %96, align 8, !tbaa !4
  store ptr %97, ptr %25, align 8, !tbaa !4
  br label %98

98:                                               ; preds = %1
  call void @llvm.lifetime.start.p0(i64 1, ptr %26) #8
  call void @llvm.lifetime.start.p0(i64 1, ptr %27) #8
  call void @llvm.lifetime.start.p0(i64 8, ptr %28) #8
  %99 = load ptr, ptr %5, align 8, !tbaa !4
  %100 = call i64 @lean_unbox(ptr noundef %99)
  %101 = trunc i64 %100 to i8
  store i8 %101, ptr %26, align 1, !tbaa !10
  %102 = load ptr, ptr %5, align 8, !tbaa !4
  call void @lean_dec(ptr noundef %102)
  %103 = load ptr, ptr %14, align 8, !tbaa !4
  %104 = call i64 @lean_unbox(ptr noundef %103)
  %105 = trunc i64 %104 to i8
  store i8 %105, ptr %27, align 1, !tbaa !10
  %106 = load ptr, ptr %14, align 8, !tbaa !4
  call void @lean_dec(ptr noundef %106)
  %107 = load ptr, ptr %3, align 8, !tbaa !4
  %108 = load ptr, ptr %4, align 8, !tbaa !4
  %109 = load i8, ptr %26, align 1, !tbaa !10
  %110 = load ptr, ptr %6, align 8, !tbaa !4
  %111 = load ptr, ptr %7, align 8, !tbaa !4
  %112 = load ptr, ptr %8, align 8, !tbaa !4
  %113 = load ptr, ptr %9, align 8, !tbaa !4
  %114 = load ptr, ptr %10, align 8, !tbaa !4
  %115 = load ptr, ptr %11, align 8, !tbaa !4
  %116 = load ptr, ptr %12, align 8, !tbaa !4
  %117 = load ptr, ptr %13, align 8, !tbaa !4
  %118 = load i8, ptr %27, align 1, !tbaa !10
  %119 = load ptr, ptr %15, align 8, !tbaa !4
  %120 = load ptr, ptr %16, align 8, !tbaa !4
  %121 = load ptr, ptr %17, align 8, !tbaa !4
  %122 = load ptr, ptr %18, align 8, !tbaa !4
  %123 = load ptr, ptr %19, align 8, !tbaa !4
  %124 = load ptr, ptr %20, align 8, !tbaa !4
  %125 = load ptr, ptr %21, align 8, !tbaa !4
  %126 = load ptr, ptr %22, align 8, !tbaa !4
  %127 = load ptr, ptr %23, align 8, !tbaa !4
  %128 = load ptr, ptr %24, align 8, !tbaa !4
  %129 = load ptr, ptr %25, align 8, !tbaa !4
  %130 = call ptr @l_Lean_PrettyPrinter_Parenthesizer_maybeParenthesize___lambda__9(ptr noundef %107, ptr noundef %108, i8 noundef zeroext %109, ptr noundef %110, ptr noundef %111, ptr noundef %112, ptr noundef %113, ptr noundef %114, ptr noundef %115, ptr noundef %116, ptr noundef %117, i8 noundef zeroext %118, ptr noundef %119, ptr noundef %120, ptr noundef %121, ptr noundef %122, ptr noundef %123, ptr noundef %124, ptr noundef %125, ptr noundef %126, ptr noundef %127, ptr noundef %128, ptr noundef %129)
  store ptr %130, ptr %28, align 8, !tbaa !4
  %131 = load ptr, ptr %20, align 8, !tbaa !4
  call void @lean_dec(ptr noundef %131)
  %132 = load ptr, ptr %19, align 8, !tbaa !4
  call void @lean_dec(ptr noundef %132)
  %133 = load ptr, ptr %18, align 8, !tbaa !4
  call void @lean_dec(ptr noundef %133)
  %134 = load ptr, ptr %17, align 8, !tbaa !4
  call void @lean_dec(ptr noundef %134)
  %135 = load ptr, ptr %16, align 8, !tbaa !4
  call void @lean_dec(ptr noundef %135)
  %136 = load ptr, ptr %15, align 8, !tbaa !4
  call void @lean_dec(ptr noundef %136)
  %137 = load ptr, ptr %13, align 8, !tbaa !4
  call void @lean_dec(ptr noundef %137)
  %138 = load ptr, ptr %12, align 8, !tbaa !4
  call void @lean_dec(ptr noundef %138)
  %139 = load ptr, ptr %28, align 8, !tbaa !4
  call void @llvm.lifetime.end.p0(i64 8, ptr %28) #8
  call void @llvm.lifetime.end.p0(i64 1, ptr %27) #8
  call void @llvm.lifetime.end.p0(i64 1, ptr %26) #8
  call void @llvm.lifetime.end.p0(i64 8, ptr %25) #8
  call void @llvm.lifetime.end.p0(i64 8, ptr %24) #8
  call void @llvm.lifetime.end.p0(i64 8, ptr %23) #8
  call void @llvm.lifetime.end.p0(i64 8, ptr %22) #8
  call void @llvm.lifetime.end.p0(i64 8, ptr %21) #8
  call void @llvm.lifetime.end.p0(i64 8, ptr %20) #8
  call void @llvm.lifetime.end.p0(i64 8, ptr %19) #8
  call void @llvm.lifetime.end.p0(i64 8, ptr %18) #8
  call void @llvm.lifetime.end.p0(i64 8, ptr %17) #8
  call void @llvm.lifetime.end.p0(i64 8, ptr %16) #8
  call void @llvm.lifetime.end.p0(i64 8, ptr %15) #8
  call void @llvm.lifetime.end.p0(i64 8, ptr %14) #8
  call void @llvm.lifetime.end.p0(i64 8, ptr %13) #8
  call void @llvm.lifetime.end.p0(i64 8, ptr %12) #8
  call void @llvm.lifetime.end.p0(i64 8, ptr %11) #8
  call void @llvm.lifetime.end.p0(i64 8, ptr %10) #8
  call void @llvm.lifetime.end.p0(i64 8, ptr %9) #8
  call void @llvm.lifetime.end.p0(i64 8, ptr %8) #8
  call void @llvm.lifetime.end.p0(i64 8, ptr %7) #8
  call void @llvm.lifetime.end.p0(i64 8, ptr %6) #8
  call void @llvm.lifetime.end.p0(i64 8, ptr %5) #8
  call void @llvm.lifetime.end.p0(i64 8, ptr %4) #8
  call void @llvm.lifetime.end.p0(i64 8, ptr %3) #8
  ret ptr %139
}