; Function Attrs: nounwind uwtable
define ptr @l_Lean_PrettyPrinter_Parenthesizer_maybeParenthesize___lambda__9___boxed(ptr noundef readonly captures(none) %0) local_unnamed_addr #0 {
  %2 = load ptr, ptr %0, align 8, !tbaa !4
  %3 = getelementptr inbounds nuw i8, ptr %0, i64 8
  %4 = load ptr, ptr %3, align 8, !tbaa !4
  %5 = getelementptr inbounds nuw i8, ptr %0, i64 16
  %6 = load ptr, ptr %5, align 8, !tbaa !4
  %7 = getelementptr inbounds nuw i8, ptr %0, i64 24
  %8 = load ptr, ptr %7, align 8, !tbaa !4
  %9 = getelementptr inbounds nuw i8, ptr %0, i64 32
  %10 = load ptr, ptr %9, align 8, !tbaa !4
  %11 = getelementptr inbounds nuw i8, ptr %0, i64 40
  %12 = load ptr, ptr %11, align 8, !tbaa !4
  %13 = getelementptr inbounds nuw i8, ptr %0, i64 48
  %14 = load ptr, ptr %13, align 8, !tbaa !4
  %15 = getelementptr inbounds nuw i8, ptr %0, i64 56
  %16 = load ptr, ptr %15, align 8, !tbaa !4
  %17 = getelementptr inbounds nuw i8, ptr %0, i64 64
  %18 = load ptr, ptr %17, align 8, !tbaa !4
  %19 = getelementptr inbounds nuw i8, ptr %0, i64 72
  %20 = load ptr, ptr %19, align 8, !tbaa !4
  %21 = getelementptr inbounds nuw i8, ptr %0, i64 80
  %22 = load ptr, ptr %21, align 8, !tbaa !4
  %23 = getelementptr inbounds nuw i8, ptr %0, i64 88
  %24 = load ptr, ptr %23, align 8, !tbaa !4
  %25 = getelementptr inbounds nuw i8, ptr %0, i64 96
  %26 = load ptr, ptr %25, align 8, !tbaa !4
  %27 = getelementptr inbounds nuw i8, ptr %0, i64 104
  %28 = load ptr, ptr %27, align 8, !tbaa !4
  %29 = getelementptr inbounds nuw i8, ptr %0, i64 112
  %30 = load ptr, ptr %29, align 8, !tbaa !4
  %31 = getelementptr inbounds nuw i8, ptr %0, i64 120
  %32 = load ptr, ptr %31, align 8, !tbaa !4
  %33 = getelementptr inbounds nuw i8, ptr %0, i64 128
  %34 = load ptr, ptr %33, align 8, !tbaa !4
  %35 = getelementptr inbounds nuw i8, ptr %0, i64 136
  %36 = load ptr, ptr %35, align 8, !tbaa !4
  %37 = getelementptr inbounds nuw i8, ptr %0, i64 144
  %38 = load ptr, ptr %37, align 8, !tbaa !4
  %39 = getelementptr inbounds nuw i8, ptr %0, i64 152
  %40 = load ptr, ptr %39, align 8, !tbaa !4
  %41 = getelementptr inbounds nuw i8, ptr %0, i64 160
  %42 = load ptr, ptr %41, align 8, !tbaa !4
  %43 = getelementptr inbounds nuw i8, ptr %0, i64 168
  %44 = load ptr, ptr %43, align 8, !tbaa !4
  %45 = getelementptr inbounds nuw i8, ptr %0, i64 176
  %46 = load ptr, ptr %45, align 8, !tbaa !4
  %47 = ptrtoint ptr %6 to i64
  %48 = lshr i64 %47, 1
  %49 = trunc i64 %48 to i8
  %50 = and i64 %47, 1
  %.not = icmp eq i64 %50, 0
  br i1 %.not, label %51, label %lean_dec.exit66

51:                                               ; preds = %1
  %52 = load i32, ptr %6, align 4, !tbaa !8
  %53 = icmp sgt i32 %52, 1
  br i1 %53, label %54, label %56, !prof !11

54:                                               ; preds = %51
  %55 = add nsw i32 %52, -1
  store i32 %55, ptr %6, align 4, !tbaa !8
  br label %lean_dec.exit66

56:                                               ; preds = %51
  %.not.i = icmp eq i32 %52, 0
  br i1 %.not.i, label %lean_dec.exit66, label %57

57:                                               ; preds = %56
  tail call void @lean_dec_ref_cold(ptr noundef nonnull %6) #6
  br label %lean_dec.exit66

lean_dec.exit66:                                  ; preds = %57, %56, %54, %1
  %58 = ptrtoint ptr %24 to i64
  %59 = lshr i64 %58, 1
  %60 = trunc i64 %59 to i8
  %61 = and i64 %58, 1
  %.not85 = icmp eq i64 %61, 0
  br i1 %.not85, label %62, label %lean_dec.exit65

62:                                               ; preds = %lean_dec.exit66
  %63 = load i32, ptr %24, align 4, !tbaa !8
  %64 = icmp sgt i32 %63, 1
  br i1 %64, label %65, label %67, !prof !11

65:                                               ; preds = %62
  %66 = add nsw i32 %63, -1
  store i32 %66, ptr %24, align 4, !tbaa !8
  br label %lean_dec.exit65

67:                                               ; preds = %62
  %.not.i67 = icmp eq i32 %63, 0
  br i1 %.not.i67, label %lean_dec.exit65, label %68

68:                                               ; preds = %67
  tail call void @lean_dec_ref_cold(ptr noundef nonnull %24) #6
  br label %lean_dec.exit65

lean_dec.exit65:                                  ; preds = %68, %67, %65, %lean_dec.exit66
  %69 = tail call ptr @l_Lean_PrettyPrinter_Parenthesizer_maybeParenthesize___lambda__9(ptr noundef %2, ptr noundef %4, i8 noundef zeroext %49, ptr noundef %8, ptr noundef %10, ptr noundef %12, ptr noundef %14, ptr noundef %16, ptr noundef %18, ptr noundef %20, ptr noundef %22, i8 noundef zeroext %60, ptr noundef %26, ptr noundef %28, ptr noundef %30, ptr noundef %32, ptr noundef %34, ptr poison, ptr noundef %38, ptr noundef %40, ptr noundef %42, ptr noundef %44, ptr noundef %46)
  %70 = ptrtoint ptr %36 to i64
  %71 = and i64 %70, 1
  %.not86 = icmp eq i64 %71, 0
  br i1 %.not86, label %72, label %lean_dec.exit64

72:                                               ; preds = %lean_dec.exit65
  %73 = load i32, ptr %36, align 4, !tbaa !8
  %74 = icmp sgt i32 %73, 1
  br i1 %74, label %75, label %77, !prof !11

75:                                               ; preds = %72
  %76 = add nsw i32 %73, -1
  store i32 %76, ptr %36, align 4, !tbaa !8
  br label %lean_dec.exit64

77:                                               ; preds = %72
  %.not.i69 = icmp eq i32 %73, 0
  br i1 %.not.i69, label %lean_dec.exit64, label %78

78:                                               ; preds = %77
  tail call void @lean_dec_ref_cold(ptr noundef nonnull %36) #6
  br label %lean_dec.exit64

lean_dec.exit64:                                  ; preds = %78, %77, %75, %lean_dec.exit65
  %79 = ptrtoint ptr %34 to i64
  %80 = and i64 %79, 1
  %.not87 = icmp eq i64 %80, 0
  br i1 %.not87, label %81, label %lean_dec.exit63

81:                                               ; preds = %lean_dec.exit64
  %82 = load i32, ptr %34, align 4, !tbaa !8
  %83 = icmp sgt i32 %82, 1
  br i1 %83, label %84, label %86, !prof !11

84:                                               ; preds = %81
  %85 = add nsw i32 %82, -1
  store i32 %85, ptr %34, align 4, !tbaa !8
  br label %lean_dec.exit63

86:                                               ; preds = %81
  %.not.i71 = icmp eq i32 %82, 0
  br i1 %.not.i71, label %lean_dec.exit63, label %87

87:                                               ; preds = %86
  tail call void @lean_dec_ref_cold(ptr noundef nonnull %34) #6
  br label %lean_dec.exit63

lean_dec.exit63:                                  ; preds = %87, %86, %84, %lean_dec.exit64
  %88 = ptrtoint ptr %32 to i64
  %89 = and i64 %88, 1
  %.not88 = icmp eq i64 %89, 0
  br i1 %.not88, label %90, label %lean_dec.exit62

90:                                               ; preds = %lean_dec.exit63
  %91 = load i32, ptr %32, align 4, !tbaa !8
  %92 = icmp sgt i32 %91, 1
  br i1 %92, label %93, label %95, !prof !11

93:                                               ; preds = %90
  %94 = add nsw i32 %91, -1
  store i32 %94, ptr %32, align 4, !tbaa !8
  br label %lean_dec.exit62

95:                                               ; preds = %90
  %.not.i73 = icmp eq i32 %91, 0
  br i1 %.not.i73, label %lean_dec.exit62, label %96

96:                                               ; preds = %95
  tail call void @lean_dec_ref_cold(ptr noundef nonnull %32) #6
  br label %lean_dec.exit62

lean_dec.exit62:                                  ; preds = %96, %95, %93, %lean_dec.exit63
  %97 = ptrtoint ptr %30 to i64
  %98 = and i64 %97, 1
  %.not89 = icmp eq i64 %98, 0
  br i1 %.not89, label %99, label %lean_dec.exit61

99:                                               ; preds = %lean_dec.exit62
  %100 = load i32, ptr %30, align 4, !tbaa !8
  %101 = icmp sgt i32 %100, 1
  br i1 %101, label %102, label %104, !prof !11

102:                                              ; preds = %99
  %103 = add nsw i32 %100, -1
  store i32 %103, ptr %30, align 4, !tbaa !8
  br label %lean_dec.exit61

104:                                              ; preds = %99
  %.not.i75 = icmp eq i32 %100, 0
  br i1 %.not.i75, label %lean_dec.exit61, label %105

105:                                              ; preds = %104
  tail call void @lean_dec_ref_cold(ptr noundef nonnull %30) #6
  br label %lean_dec.exit61

lean_dec.exit61:                                  ; preds = %105, %104, %102, %lean_dec.exit62
  %106 = ptrtoint ptr %28 to i64
  %107 = and i64 %106, 1
  %.not90 = icmp eq i64 %107, 0
  br i1 %.not90, label %108, label %lean_dec.exit60

108:                                              ; preds = %lean_dec.exit61
  %109 = load i32, ptr %28, align 4, !tbaa !8
  %110 = icmp sgt i32 %109, 1
  br i1 %110, label %111, label %113, !prof !11

111:                                              ; preds = %108
  %112 = add nsw i32 %109, -1
  store i32 %112, ptr %28, align 4, !tbaa !8
  br label %lean_dec.exit60

113:                                              ; preds = %108
  %.not.i77 = icmp eq i32 %109, 0
  br i1 %.not.i77, label %lean_dec.exit60, label %114

114:                                              ; preds = %113
  tail call void @lean_dec_ref_cold(ptr noundef nonnull %28) #6
  br label %lean_dec.exit60

lean_dec.exit60:                                  ; preds = %114, %113, %111, %lean_dec.exit61
  %115 = ptrtoint ptr %26 to i64
  %116 = and i64 %115, 1
  %.not91 = icmp eq i64 %116, 0
  br i1 %.not91, label %117, label %lean_dec.exit59

117:                                              ; preds = %lean_dec.exit60
  %118 = load i32, ptr %26, align 4, !tbaa !8
  %119 = icmp sgt i32 %118, 1
  br i1 %119, label %120, label %122, !prof !11

120:                                              ; preds = %117
  %121 = add nsw i32 %118, -1
  store i32 %121, ptr %26, align 4, !tbaa !8
  br label %lean_dec.exit59

122:                                              ; preds = %117
  %.not.i79 = icmp eq i32 %118, 0
  br i1 %.not.i79, label %lean_dec.exit59, label %123

123:                                              ; preds = %122
  tail call void @lean_dec_ref_cold(ptr noundef nonnull %26) #6
  br label %lean_dec.exit59

lean_dec.exit59:                                  ; preds = %123, %122, %120, %lean_dec.exit60
  %124 = ptrtoint ptr %22 to i64
  %125 = and i64 %124, 1
  %.not92 = icmp eq i64 %125, 0
  br i1 %.not92, label %126, label %lean_dec.exit58

126:                                              ; preds = %lean_dec.exit59
  %127 = load i32, ptr %22, align 4, !tbaa !8
  %128 = icmp sgt i32 %127, 1
  br i1 %128, label %129, label %131, !prof !11

129:                                              ; preds = %126
  %130 = add nsw i32 %127, -1
  store i32 %130, ptr %22, align 4, !tbaa !8
  br label %lean_dec.exit58

131:                                              ; preds = %126
  %.not.i81 = icmp eq i32 %127, 0
  br i1 %.not.i81, label %lean_dec.exit58, label %132

132:                                              ; preds = %131
  tail call void @lean_dec_ref_cold(ptr noundef nonnull %22) #6
  br label %lean_dec.exit58

lean_dec.exit58:                                  ; preds = %132, %131, %129, %lean_dec.exit59
  %133 = ptrtoint ptr %20 to i64
  %134 = and i64 %133, 1
  %.not93 = icmp eq i64 %134, 0
  br i1 %.not93, label %135, label %lean_dec.exit

135:                                              ; preds = %lean_dec.exit58
  %136 = load i32, ptr %20, align 4, !tbaa !8
  %137 = icmp sgt i32 %136, 1
  br i1 %137, label %138, label %140, !prof !11

138:                                              ; preds = %135
  %139 = add nsw i32 %136, -1
  store i32 %139, ptr %20, align 4, !tbaa !8
  br label %lean_dec.exit

140:                                              ; preds = %135
  %.not.i83 = icmp eq i32 %136, 0
  br i1 %.not.i83, label %lean_dec.exit, label %141

141:                                              ; preds = %140
  tail call void @lean_dec_ref_cold(ptr noundef nonnull %20) #6
  br label %lean_dec.exit

lean_dec.exit:                                    ; preds = %141, %140, %138, %lean_dec.exit58
  ret ptr %69
}